target datalayout = "e-m:e-p270:32:32-p271:32:32-p272:64:64-i64:64-i128:128-f80:128-n8:16:32:64-S128"
target triple = "x86_64-unknown-linux-gnu"

; Function Attrs: mustprogress nounwind uwtable
define noundef zeroext i8 @_ZNK8proxygen11HTTPSession14getSessionTypeEv(ptr noundef nonnull align 8 dereferenceable(2504) %this) unnamed_addr #5 align 2 {
entry:
  %this.addr = alloca ptr, align 8
  store ptr %this, ptr %this.addr, align 8
  %this1 = load ptr, ptr %this.addr, align 8
  %vtable = load ptr, ptr %this1, align 8
  %vfn = getelementptr inbounds ptr, ptr %vtable, i64 19
  %0 = load ptr, ptr %vfn, align 8
  %call = call noundef zeroext i8 %0(ptr noundef nonnull align 8 dereferenceable(2504) %this1) #3
  ret i8 %call
}

; Function Attrs: nounwind uwtable
define noundef zeroext i8 @_ZThn1584_NK8proxygen11HTTPSession14getSessionTypeEv(ptr noundef %this) unnamed_addr #11 align 2 {
entry:
  %this.addr = alloca ptr, align 8
  store ptr %this, ptr %this.addr, align 8
  %this1 = load ptr, ptr %this.addr, align 8
  %0 = getelementptr inbounds i8, ptr %this1, i64 -1584
  %call = tail call noundef zeroext i8 @_ZNK8proxygen11HTTPSession14getSessionTypeEv(ptr noundef nonnull align 8 dereferenceable(2504) %0) #3
  ret i8 %call
}