; Function Attrs: nounwind uwtable
define noundef zeroext i8 @_ZThn1584_NK8proxygen11HTTPSession14getSessionTypeEv(ptr noundef %this) unnamed_addr #10 align 2 {
entry:
  %0 = getelementptr inbounds i8, ptr %this, i64 -1584
  %vtable.i = load ptr, ptr %0, align 8
  %vfn.i = getelementptr inbounds i8, ptr %vtable.i, i64 152
  %1 = load ptr, ptr %vfn.i, align 8
  %call.i = tail call noundef zeroext i8 %1(ptr noundef nonnull align 8 dereferenceable(2504) %0) #39
  ret i8 %call.i
}